target datalayout = "e-m:e-p270:32:32-p271:32:32-p272:64:64-i64:64-i128:128-f80:128-n8:16:32:64-S128"
target triple = "x86_64-pc-linux-gnu"

%struct.Color = type { i8, i8, i8, i8 }
%struct.Rectangle = type { float, float, float, float }

; Function Attrs: nounwind uwtable
define void @ImageDrawRectangle(ptr noundef %0, i32 noundef %1, i32 noundef %2, i32 noundef %3, i32 noundef %4, i32 %5) #9 {
  %7 = alloca %struct.Color, align 1
  %8 = alloca ptr, align 8
  %9 = alloca i32, align 4
  %10 = alloca i32, align 4
  %11 = alloca i32, align 4
  %12 = alloca i32, align 4
  %13 = alloca %struct.Rectangle, align 4
  store i32 %5, ptr %7, align 1
  store ptr %0, ptr %8, align 8
  store i32 %1, ptr %9, align 4
  store i32 %2, ptr %10, align 4
  store i32 %3, ptr %11, align 4
  store i32 %4, ptr %12, align 4
  %14 = load ptr, ptr %8, align 8
  %15 = getelementptr inbounds nuw %struct.Rectangle, ptr %13, i32 0, i32 0
  %16 = load i32, ptr %9, align 4
  %17 = sitofp i32 %16 to float
  store float %17, ptr %15, align 4
  %18 = getelementptr inbounds nuw %struct.Rectangle, ptr %13, i32 0, i32 1
  %19 = load i32, ptr %10, align 4
  %20 = sitofp i32 %19 to float
  store float %20, ptr %18, align 4
  %21 = getelementptr inbounds nuw %struct.Rectangle, ptr %13, i32 0, i32 2
  %22 = load i32, ptr %11, align 4
  %23 = sitofp i32 %22 to float
  store float %23, ptr %21, align 4
  %24 = getelementptr inbounds nuw %struct.Rectangle, ptr %13, i32 0, i32 3
  %25 = load i32, ptr %12, align 4
  %26 = sitofp i32 %25 to float
  store float %26, ptr %24, align 4
  %27 = getelementptr inbounds nuw { <2 x float>, <2 x float> }, ptr %13, i32 0, i32 0
  %28 = load <2 x float>, ptr %27, align 4
  %29 = getelementptr inbounds nuw { <2 x float>, <2 x float> }, ptr %13, i32 0, i32 1
  %30 = load <2 x float>, ptr %29, align 4
  %31 = load i32, ptr %7, align 1
  call void @ImageDrawRectangleRec(ptr noundef %14, <2 x float> %28, <2 x float> %30, i32 %31)
  ret void
}

; Function Attrs: nounwind uwtable
define void @ImageDrawCircle(ptr noundef %0, i32 noundef %1, i32 noundef %2, i32 noundef %3, i32 %4) #0 {
  %6 = alloca %struct.Color, align 1
  %7 = alloca ptr, align 8
  %8 = alloca i32, align 4
  %9 = alloca i32, align 4
  %10 = alloca i32, align 4
  %11 = alloca i32, align 4
  %12 = alloca i32, align 4
  %13 = alloca i32, align 4
  store i32 %4, ptr %6, align 1
  store ptr %0, ptr %7, align 8
  store i32 %1, ptr %8, align 4
  store i32 %2, ptr %9, align 4
  store i32 %3, ptr %10, align 4
  call void @llvm.lifetime.start.p0(i64 4, ptr %11) #19
  store i32 0, ptr %11, align 4
  call void @llvm.lifetime.start.p0(i64 4, ptr %12) #19
  %14 = load i32, ptr %10, align 4
  store i32 %14, ptr %12, align 4
  call void @llvm.lifetime.start.p0(i64 4, ptr %13) #19
  %15 = load i32, ptr %10, align 4
  %16 = mul nsw i32 2, %15
  %17 = sub nsw i32 3, %16
  store i32 %17, ptr %13, align 4
  br label %18

18:                                               ; preds = %83, %5
  %19 = load i32, ptr %12, align 4
  %20 = load i32, ptr %11, align 4
  %21 = icmp sge i32 %19, %20
  br i1 %21, label %22, label %84

22:                                               ; preds = %18
  %23 = load ptr, ptr %7, align 8
  %24 = load i32, ptr %8, align 4
  %25 = load i32, ptr %11, align 4
  %26 = sub nsw i32 %24, %25
  %27 = load i32, ptr %9, align 4
  %28 = load i32, ptr %12, align 4
  %29 = add nsw i32 %27, %28
  %30 = load i32, ptr %11, align 4
  %31 = mul nsw i32 %30, 2
  %32 = load i32, ptr %6, align 1
  call void @ImageDrawRectangle(ptr noundef %23, i32 noundef %26, i32 noundef %29, i32 noundef %31, i32 noundef 1, i32 %32)
  %33 = load ptr, ptr %7, align 8
  %34 = load i32, ptr %8, align 4
  %35 = load i32, ptr %11, align 4
  %36 = sub nsw i32 %34, %35
  %37 = load i32, ptr %9, align 4
  %38 = load i32, ptr %12, align 4
  %39 = sub nsw i32 %37, %38
  %40 = load i32, ptr %11, align 4
  %41 = mul nsw i32 %40, 2
  %42 = load i32, ptr %6, align 1
  call void @ImageDrawRectangle(ptr noundef %33, i32 noundef %36, i32 noundef %39, i32 noundef %41, i32 noundef 1, i32 %42)
  %43 = load ptr, ptr %7, align 8
  %44 = load i32, ptr %8, align 4
  %45 = load i32, ptr %12, align 4
  %46 = sub nsw i32 %44, %45
  %47 = load i32, ptr %9, align 4
  %48 = load i32, ptr %11, align 4
  %49 = add nsw i32 %47, %48
  %50 = load i32, ptr %12, align 4
  %51 = mul nsw i32 %50, 2
  %52 = load i32, ptr %6, align 1
  call void @ImageDrawRectangle(ptr noundef %43, i32 noundef %46, i32 noundef %49, i32 noundef %51, i32 noundef 1, i32 %52)
  %53 = load ptr, ptr %7, align 8
  %54 = load i32, ptr %8, align 4
  %55 = load i32, ptr %12, align 4
  %56 = sub nsw i32 %54, %55
  %57 = load i32, ptr %9, align 4
  %58 = load i32, ptr %11, align 4
  %59 = sub nsw i32 %57, %58
  %60 = load i32, ptr %12, align 4
  %61 = mul nsw i32 %60, 2
  %62 = load i32, ptr %6, align 1
  call void @ImageDrawRectangle(ptr noundef %53, i32 noundef %56, i32 noundef %59, i32 noundef %61, i32 noundef 1, i32 %62)
  %63 = load i32, ptr %11, align 4
  %64 = add nsw i32 %63, 1
  store i32 %64, ptr %11, align 4
  %65 = load i32, ptr %13, align 4
  %66 = icmp sgt i32 %65, 0
  br i1 %66, label %67, label %77

67:                                               ; preds = %22
  %68 = load i32, ptr %12, align 4
  %69 = add nsw i32 %68, -1
  store i32 %69, ptr %12, align 4
  %70 = load i32, ptr %13, align 4
  %71 = load i32, ptr %11, align 4
  %72 = load i32, ptr %12, align 4
  %73 = sub nsw i32 %71, %72
  %74 = mul nsw i32 4, %73
  %75 = add nsw i32 %70, %74
  %76 = add nsw i32 %75, 10
  store i32 %76, ptr %13, align 4
  br label %83

77:                                               ; preds = %22
  %78 = load i32, ptr %13, align 4
  %79 = load i32, ptr %11, align 4
  %80 = mul nsw i32 4, %79
  %81 = add nsw i32 %78, %80
  %82 = add nsw i32 %81, 6
  store i32 %82, ptr %13, align 4
  br label %83

83:                                               ; preds = %77, %67
  br label %18

84:                                               ; preds = %18
  call void @llvm.lifetime.end.p0(i64 4, ptr %13) #19
  call void @llvm.lifetime.end.p0(i64 4, ptr %12) #19
  call void @llvm.lifetime.end.p0(i64 4, ptr %11) #19
  ret void
}