; Function Attrs: nofree norecurse nosync nounwind memory(readwrite, inaccessiblemem: none) uwtable
define void @ImageDrawCircle(ptr noundef readonly captures(none) %0, i32 noundef %1, i32 noundef %2, i32 noundef %3, i32 %4) local_unnamed_addr #38 {
  %.not53 = icmp slt i32 %3, 0
  br i1 %.not53, label %._crit_edge, label %.lr.ph.preheader

.lr.ph.preheader:                                 ; preds = %5
  %6 = shl nuw nsw i32 %3, 1
  %7 = sub nsw i32 3, %6
  br label %.lr.ph

.lr.ph:                                           ; preds = %.lr.ph.preheader, %36
  %.056 = phi i32 [ %.1, %36 ], [ %7, %.lr.ph.preheader ]
  %.03855 = phi i32 [ %.139, %36 ], [ %3, %.lr.ph.preheader ]
  %.04054 = phi i32 [ %24, %36 ], [ 0, %.lr.ph.preheader ]
  %8 = sub nsw i32 %1, %.04054
  %9 = add nsw i32 %.03855, %2
  %10 = shl nuw nsw i32 %.04054, 1
  %11 = sitofp i32 %8 to float
  %.sroa.0.0.vec.insert.i = insertelement <2 x float> poison, float %11, i64 0
  %12 = sitofp i32 %9 to float
  %.sroa.0.4.vec.insert.i = insertelement <2 x float> %.sroa.0.0.vec.insert.i, float %12, i64 1
  %13 = uitofp nneg i32 %10 to float
  %.sroa.3.12.vec.insert.i = insertelement <2 x float> <float poison, float 1.000000e+00>, float %13, i64 0
  tail call void @ImageDrawRectangleRec(ptr noundef readonly %0, <2 x float> %.sroa.0.4.vec.insert.i, <2 x float> %.sroa.3.12.vec.insert.i, i32 %4)
  %14 = sub nsw i32 %2, %.03855
  %15 = sitofp i32 %14 to float
  %.sroa.0.4.vec.insert.i42 = insertelement <2 x float> %.sroa.0.0.vec.insert.i, float %15, i64 1
  tail call void @ImageDrawRectangleRec(ptr noundef readonly %0, <2 x float> %.sroa.0.4.vec.insert.i42, <2 x float> %.sroa.3.12.vec.insert.i, i32 %4)
  %16 = sub nsw i32 %1, %.03855
  %17 = add nsw i32 %.04054, %2
  %18 = shl nsw i32 %.03855, 1
  %19 = sitofp i32 %16 to float
  %.sroa.0.0.vec.insert.i45 = insertelement <2 x float> poison, float %19, i64 0
  %20 = sitofp i32 %17 to float
  %.sroa.0.4.vec.insert.i46 = insertelement <2 x float> %.sroa.0.0.vec.insert.i45, float %20, i64 1
  %21 = sitofp i32 %18 to float
  %.sroa.3.12.vec.insert.i48 = insertelement <2 x float> <float poison, float 1.000000e+00>, float %21, i64 0
  tail call void @ImageDrawRectangleRec(ptr noundef readonly %0, <2 x float> %.sroa.0.4.vec.insert.i46, <2 x float> %.sroa.3.12.vec.insert.i48, i32 %4)
  %22 = sub nsw i32 %2, %.04054
  %23 = sitofp i32 %22 to float
  %.sroa.0.4.vec.insert.i50 = insertelement <2 x float> %.sroa.0.0.vec.insert.i45, float %23, i64 1
  tail call void @ImageDrawRectangleRec(ptr noundef readonly %0, <2 x float> %.sroa.0.4.vec.insert.i50, <2 x float> %.sroa.3.12.vec.insert.i48, i32 %4)
  %24 = add nuw nsw i32 %.04054, 1
  %25 = icmp sgt i32 %.056, 0
  br i1 %25, label %26, label %32

26:                                               ; preds = %.lr.ph
  %27 = add nsw i32 %.03855, -1
  %28 = sub nsw i32 %24, %27
  %29 = shl nsw i32 %28, 2
  %30 = add nuw i32 %.056, 10
  %31 = add i32 %30, %29
  br label %36

32:                                               ; preds = %.lr.ph
  %33 = shl nsw i32 %24, 2
  %34 = add nuw i32 %33, 6
  %35 = add i32 %34, %.056
  br label %36

36:                                               ; preds = %32, %26
  %.139 = phi i32 [ %27, %26 ], [ %.03855, %32 ]
  %.1 = phi i32 [ %31, %26 ], [ %35, %32 ]
  %.not.not = icmp sgt i32 %.139, %.04054
  br i1 %.not.not, label %.lr.ph, label %._crit_edge

._crit_edge:                                      ; preds = %36, %5
  ret void
}